target datalayout = "e-m:e-p270:32:32-p271:32:32-p272:64:64-i64:64-i128:128-f80:128-n8:16:32:64-S128"
target triple = "x86_64-pc-linux-gnu"

%struct.MPIR_PROCDESC = type { ptr, ptr, i32 }

@MPIR_proctable = external global ptr, align 8
@MPIR_proctable_size = external global i32, align 4

; Function Attrs: nounwind uwtable
define dso_local void @mpir_cleanup() #0 {
  %1 = alloca i32, align 4
  call void @llvm.lifetime.start.p0(i64 4, ptr %1) #8
  store i32 0, ptr %1, align 4
  br label %2

2:                                                ; preds = %17, %0
  %3 = load i32, ptr %1, align 4
  %4 = load i32, ptr @MPIR_proctable_size, align 4
  %5 = icmp slt i32 %3, %4
  br i1 %5, label %6, label %20

6:                                                ; preds = %2
  %7 = load ptr, ptr @MPIR_proctable, align 8
  %8 = load i32, ptr %1, align 4
  %9 = sext i32 %8 to i64
  %10 = getelementptr inbounds %struct.MPIR_PROCDESC, ptr %7, i64 %9
  %11 = getelementptr inbounds nuw %struct.MPIR_PROCDESC, ptr %10, i32 0, i32 0
  call void @slurm_xfree(ptr noundef %11)
  %12 = load ptr, ptr @MPIR_proctable, align 8
  %13 = load i32, ptr %1, align 4
  %14 = sext i32 %13 to i64
  %15 = getelementptr inbounds %struct.MPIR_PROCDESC, ptr %12, i64 %14
  %16 = getelementptr inbounds nuw %struct.MPIR_PROCDESC, ptr %15, i32 0, i32 1
  call void @slurm_xfree(ptr noundef %16)
  br label %17

17:                                               ; preds = %6
  %18 = load i32, ptr %1, align 4
  %19 = add nsw i32 %18, 1
  store i32 %19, ptr %1, align 4
  br label %2, !llvm.loop !16

20:                                               ; preds = %2
  call void @slurm_xfree(ptr noundef @MPIR_proctable)
  call void @llvm.lifetime.end.p0(i64 4, ptr %1) #8
  ret void
}