; Function Attrs: nounwind uwtable
define dso_local void @mpir_cleanup() local_unnamed_addr #0 {
  %1 = load i32, ptr @MPIR_proctable_size, align 4
  %2 = icmp sgt i32 %1, 0
  br i1 %2, label %.lr.ph, label %._crit_edge

.lr.ph:                                           ; preds = %0, %.lr.ph
  %indvars.iv = phi i64 [ %indvars.iv.next, %.lr.ph ], [ 0, %0 ]
  %3 = load ptr, ptr @MPIR_proctable, align 8
  %4 = getelementptr inbounds nuw %struct.MPIR_PROCDESC, ptr %3, i64 %indvars.iv
  tail call void @slurm_xfree(ptr noundef %4) #9
  %5 = load ptr, ptr @MPIR_proctable, align 8
  %6 = getelementptr inbounds nuw %struct.MPIR_PROCDESC, ptr %5, i64 %indvars.iv, i32 1
  tail call void @slurm_xfree(ptr noundef nonnull %6) #9
  %indvars.iv.next = add nuw nsw i64 %indvars.iv, 1
  %7 = load i32, ptr @MPIR_proctable_size, align 4
  %8 = sext i32 %7 to i64
  %9 = icmp slt i64 %indvars.iv.next, %8
  br i1 %9, label %.lr.ph, label %._crit_edge, !llvm.loop !15

._crit_edge:                                      ; preds = %.lr.ph, %0
  tail call void @slurm_xfree(ptr noundef nonnull @MPIR_proctable) #9
  ret void
}